target datalayout = "e-m:e-p270:32:32-p271:32:32-p272:64:64-i64:64-i128:128-f80:128-n8:16:32:64-S128"
target triple = "x86_64-pc-linux-gnu"

%"class.logging::CheckOpResult" = type { ptr }
%"class.logging::LogMessage" = type <{ i32, [4 x i8], %"class.std::__cxx11::basic_ostringstream", i64, ptr, i32, [4 x i8] }>
%"class.std::__cxx11::basic_ostringstream" = type { %"class.std::basic_ostream.base", %"class.std::__cxx11::basic_stringbuf", %"class.std::basic_ios" }
%"class.std::basic_ostream.base" = type { ptr }
%"class.std::__cxx11::basic_stringbuf" = type { %"class.std::basic_streambuf", i32, %"class.std::__cxx11::basic_string" }
%"class.std::basic_streambuf" = type { ptr, ptr, ptr, ptr, ptr, ptr, ptr, %"class.std::locale" }
%"class.std::locale" = type { ptr }
%"class.std::__cxx11::basic_string" = type { %"struct.std::__cxx11::basic_string<char>::_Alloc_hider", i64, %union.anon }
%"struct.std::__cxx11::basic_string<char>::_Alloc_hider" = type { ptr }
%union.anon = type { i64, [8 x i8] }
%"class.std::basic_ios" = type { %"class.std::ios_base", ptr, i8, i8, ptr, ptr, ptr, ptr }
%"class.std::ios_base" = type { ptr, i64, i64, i32, i32, i32, ptr, %"struct.std::ios_base::_Words", [8 x %"struct.std::ios_base::_Words"], i32, ptr, %"class.std::locale" }
%"struct.std::ios_base::_Words" = type { ptr, i64 }
%"struct.base::Pickle::Header" = type { i32 }

@.str = private unnamed_addr constant [112 x i8] c"generated/home/dtcxzyw/WorkSpace/Projects/compilers/llvm-opt-benchmark/bench/libquic/libquic/src/base/pickle.cc\00", align 1

; Function Attrs: mustprogress nounwind uwtable
define linkonce_odr noundef i64 @_ZNSt14numeric_limitsImE3maxEv() #2 comdat align 2 {
  ret i64 -1
}

; Function Attrs: mustprogress nounwind uwtable
define linkonce_odr noundef nonnull align 8 dereferenceable(8) ptr @_ZN7logging10LogMessage6streamEv(ptr noundef nonnull align 8 dereferenceable(404) %0) #2 comdat align 2 {
  %2 = alloca ptr, align 8
  store ptr %0, ptr %2, align 8, !tbaa !14
  %3 = load ptr, ptr %2, align 8
  %4 = getelementptr inbounds nuw %"class.logging::LogMessage", ptr %3, i32 0, i32 2
  ret ptr %4
}

; Function Attrs: mustprogress nounwind uwtable
define linkonce_odr noundef ptr @_ZN7logging13CheckOpResult7messageB5cxx11Ev(ptr noundef nonnull align 8 dereferenceable(8) %0) #2 comdat align 2 {
  %2 = alloca ptr, align 8
  store ptr %0, ptr %2, align 8, !tbaa !8
  %3 = load ptr, ptr %2, align 8
  %4 = getelementptr inbounds nuw %"class.logging::CheckOpResult", ptr %3, i32 0, i32 0
  %5 = load ptr, ptr %4, align 8, !tbaa !12
  ret ptr %5
}

; Function Attrs: mustprogress nounwind uwtable
define linkonce_odr noundef zeroext i1 @_ZNK7logging13CheckOpResultcvbEv(ptr noundef nonnull align 8 dereferenceable(8) %0) #2 comdat align 2 {
  %2 = alloca ptr, align 8
  store ptr %0, ptr %2, align 8, !tbaa !8
  %3 = load ptr, ptr %2, align 8
  %4 = getelementptr inbounds nuw %"class.logging::CheckOpResult", ptr %3, i32 0, i32 0
  %5 = load ptr, ptr %4, align 8, !tbaa !12
  %6 = icmp ne ptr %5, null
  %7 = xor i1 %6, true
  ret i1 %7
}

; Function Attrs: mustprogress nounwind uwtable
define linkonce_odr void @_ZN7logging13CheckOpResultC2EPNSt7__cxx1112basic_stringIcSt11char_traitsIcESaIcEEE(ptr noundef nonnull align 8 dereferenceable(8) %0, ptr noundef %1) unnamed_addr #2 comdat align 2 {
  %3 = alloca ptr, align 8
  %4 = alloca ptr, align 8
  store ptr %0, ptr %3, align 8, !tbaa !8
  store ptr %1, ptr %4, align 8, !tbaa !10
  %5 = load ptr, ptr %3, align 8
  %6 = getelementptr inbounds nuw %"class.logging::CheckOpResult", ptr %5, i32 0, i32 0
  %7 = load ptr, ptr %4, align 8, !tbaa !10
  store ptr %7, ptr %6, align 8, !tbaa !12
  ret void
}

; Function Attrs: mustprogress uwtable
define noundef zeroext i1 @_ZN4base6Pickle8PeekNextEmPKcS2_Pm(i64 noundef %0, ptr noundef %1, ptr noundef %2, ptr noundef %3) #0 align 2 personality ptr @__gxx_personality_v0 {
  %5 = alloca i1, align 1
  %6 = alloca i64, align 8
  %7 = alloca ptr, align 8
  %8 = alloca ptr, align 8
  %9 = alloca ptr, align 8
  %10 = alloca %"class.logging::CheckOpResult", align 8
  %11 = alloca %"class.logging::LogMessage", align 8
  %12 = alloca ptr, align 8
  %13 = alloca i32, align 4
  %14 = alloca %"class.logging::CheckOpResult", align 8
  %15 = alloca %"class.logging::LogMessage", align 8
  %16 = alloca %"class.logging::CheckOpResult", align 8
  %17 = alloca %"class.logging::LogMessage", align 8
  %18 = alloca i64, align 8
  %19 = alloca i32, align 4
  %20 = alloca ptr, align 8
  store i64 %0, ptr %6, align 8, !tbaa !24
  store ptr %1, ptr %7, align 8, !tbaa !38
  store ptr %2, ptr %8, align 8, !tbaa !38
  store ptr %3, ptr %9, align 8, !tbaa !47
  call void @llvm.lifetime.start.p0(i64 8, ptr %10) #11
  call void @_ZN7logging13CheckOpResultC2EPNSt7__cxx1112basic_stringIcSt11char_traitsIcESaIcEEE(ptr noundef nonnull align 8 dereferenceable(8) %10, ptr noundef null)
  %21 = call noundef zeroext i1 @_ZNK7logging13CheckOpResultcvbEv(ptr noundef nonnull align 8 dereferenceable(8) %10)
  br i1 %21, label %22, label %23

22:                                               ; preds = %4
  br label %31

23:                                               ; preds = %4
  call void @llvm.lifetime.start.p0(i64 408, ptr %11) #11
  %24 = call noundef ptr @_ZN7logging13CheckOpResult7messageB5cxx11Ev(ptr noundef nonnull align 8 dereferenceable(8) %10)
  call void @_ZN7logging10LogMessageC1EPKciiPNSt7__cxx1112basic_stringIcSt11char_traitsIcESaIcEEE(ptr noundef nonnull align 8 dereferenceable(404) %11, ptr noundef @.str, i32 noundef 420, i32 noundef 0, ptr noundef %24)
  %25 = invoke noundef nonnull align 8 dereferenceable(8) ptr @_ZN7logging10LogMessage6streamEv(ptr noundef nonnull align 8 dereferenceable(404) %11)
          to label %26 unwind label %27

26:                                               ; preds = %23
  call void @_ZN7logging10LogMessageD1Ev(ptr noundef nonnull align 8 dereferenceable(404) %11) #11
  call void @llvm.lifetime.end.p0(i64 408, ptr %11) #11
  br label %31

27:                                               ; preds = %23
  %28 = landingpad { ptr, i32 }
          cleanup
  %29 = extractvalue { ptr, i32 } %28, 0
  store ptr %29, ptr %12, align 8
  %30 = extractvalue { ptr, i32 } %28, 1
  store i32 %30, ptr %13, align 4
  call void @_ZN7logging10LogMessageD1Ev(ptr noundef nonnull align 8 dereferenceable(404) %11) #11
  call void @llvm.lifetime.end.p0(i64 408, ptr %11) #11
  call void @llvm.lifetime.end.p0(i64 8, ptr %10) #11
  br label %92

31:                                               ; preds = %26, %22
  call void @llvm.lifetime.end.p0(i64 8, ptr %10) #11
  call void @llvm.lifetime.start.p0(i64 8, ptr %14) #11
  call void @_ZN7logging13CheckOpResultC2EPNSt7__cxx1112basic_stringIcSt11char_traitsIcESaIcEEE(ptr noundef nonnull align 8 dereferenceable(8) %14, ptr noundef null)
  %32 = call noundef zeroext i1 @_ZNK7logging13CheckOpResultcvbEv(ptr noundef nonnull align 8 dereferenceable(8) %14)
  br i1 %32, label %33, label %34

33:                                               ; preds = %31
  br label %42

34:                                               ; preds = %31
  call void @llvm.lifetime.start.p0(i64 408, ptr %15) #11
  %35 = call noundef ptr @_ZN7logging13CheckOpResult7messageB5cxx11Ev(ptr noundef nonnull align 8 dereferenceable(8) %14)
  call void @_ZN7logging10LogMessageC1EPKciiPNSt7__cxx1112basic_stringIcSt11char_traitsIcESaIcEEE(ptr noundef nonnull align 8 dereferenceable(404) %15, ptr noundef @.str, i32 noundef 421, i32 noundef 0, ptr noundef %35)
  %36 = invoke noundef nonnull align 8 dereferenceable(8) ptr @_ZN7logging10LogMessage6streamEv(ptr noundef nonnull align 8 dereferenceable(404) %15)
          to label %37 unwind label %38

37:                                               ; preds = %34
  call void @_ZN7logging10LogMessageD1Ev(ptr noundef nonnull align 8 dereferenceable(404) %15) #11
  call void @llvm.lifetime.end.p0(i64 408, ptr %15) #11
  br label %42

38:                                               ; preds = %34
  %39 = landingpad { ptr, i32 }
          cleanup
  %40 = extractvalue { ptr, i32 } %39, 0
  store ptr %40, ptr %12, align 8
  %41 = extractvalue { ptr, i32 } %39, 1
  store i32 %41, ptr %13, align 4
  call void @_ZN7logging10LogMessageD1Ev(ptr noundef nonnull align 8 dereferenceable(404) %15) #11
  call void @llvm.lifetime.end.p0(i64 408, ptr %15) #11
  call void @llvm.lifetime.end.p0(i64 8, ptr %14) #11
  br label %92

42:                                               ; preds = %37, %33
  call void @llvm.lifetime.end.p0(i64 8, ptr %14) #11
  call void @llvm.lifetime.start.p0(i64 8, ptr %16) #11
  call void @_ZN7logging13CheckOpResultC2EPNSt7__cxx1112basic_stringIcSt11char_traitsIcESaIcEEE(ptr noundef nonnull align 8 dereferenceable(8) %16, ptr noundef null)
  %43 = call noundef zeroext i1 @_ZNK7logging13CheckOpResultcvbEv(ptr noundef nonnull align 8 dereferenceable(8) %16)
  br i1 %43, label %44, label %45

44:                                               ; preds = %42
  br label %53

45:                                               ; preds = %42
  call void @llvm.lifetime.start.p0(i64 408, ptr %17) #11
  %46 = call noundef ptr @_ZN7logging13CheckOpResult7messageB5cxx11Ev(ptr noundef nonnull align 8 dereferenceable(8) %16)
  call void @_ZN7logging10LogMessageC1EPKciiPNSt7__cxx1112basic_stringIcSt11char_traitsIcESaIcEEE(ptr noundef nonnull align 8 dereferenceable(404) %17, ptr noundef @.str, i32 noundef 422, i32 noundef 0, ptr noundef %46)
  %47 = invoke noundef nonnull align 8 dereferenceable(8) ptr @_ZN7logging10LogMessage6streamEv(ptr noundef nonnull align 8 dereferenceable(404) %17)
          to label %48 unwind label %49

48:                                               ; preds = %45
  call void @_ZN7logging10LogMessageD1Ev(ptr noundef nonnull align 8 dereferenceable(404) %17) #11
  call void @llvm.lifetime.end.p0(i64 408, ptr %17) #11
  br label %53

49:                                               ; preds = %45
  %50 = landingpad { ptr, i32 }
          cleanup
  %51 = extractvalue { ptr, i32 } %50, 0
  store ptr %51, ptr %12, align 8
  %52 = extractvalue { ptr, i32 } %50, 1
  store i32 %52, ptr %13, align 4
  call void @_ZN7logging10LogMessageD1Ev(ptr noundef nonnull align 8 dereferenceable(404) %17) #11
  call void @llvm.lifetime.end.p0(i64 408, ptr %17) #11
  call void @llvm.lifetime.end.p0(i64 8, ptr %16) #11
  br label %92

53:                                               ; preds = %48, %44
  call void @llvm.lifetime.end.p0(i64 8, ptr %16) #11
  call void @llvm.lifetime.start.p0(i64 8, ptr %18) #11
  %54 = load ptr, ptr %8, align 8, !tbaa !38
  %55 = load ptr, ptr %7, align 8, !tbaa !38
  %56 = ptrtoint ptr %54 to i64
  %57 = ptrtoint ptr %55 to i64
  %58 = sub i64 %56, %57
  store i64 %58, ptr %18, align 8, !tbaa !24
  %59 = load i64, ptr %18, align 8, !tbaa !24
  %60 = icmp ult i64 %59, 4
  br i1 %60, label %61, label %62

61:                                               ; preds = %53
  store i1 false, ptr %5, align 1
  store i32 1, ptr %19, align 4
  br label %90

62:                                               ; preds = %53
  call void @llvm.lifetime.start.p0(i64 8, ptr %20) #11
  %63 = load ptr, ptr %7, align 8, !tbaa !38
  store ptr %63, ptr %20, align 8, !tbaa !87
  %64 = load i64, ptr %18, align 8, !tbaa !24
  %65 = load i64, ptr %6, align 8, !tbaa !24
  %66 = icmp ult i64 %64, %65
  br i1 %66, label %67, label %68

67:                                               ; preds = %62
  store i1 false, ptr %5, align 1
  store i32 1, ptr %19, align 4
  br label %89

68:                                               ; preds = %62
  %69 = load ptr, ptr %20, align 8, !tbaa !87
  %70 = getelementptr inbounds nuw %"struct.base::Pickle::Header", ptr %69, i32 0, i32 0
  %71 = load i32, ptr %70, align 4, !tbaa !36
  %72 = zext i32 %71 to i64
  %73 = call noundef i64 @_ZNSt14numeric_limitsImE3maxEv() #11
  %74 = load i64, ptr %6, align 8, !tbaa !24
  %75 = sub i64 %73, %74
  %76 = icmp ugt i64 %72, %75
  br i1 %76, label %77, label %80

77:                                               ; preds = %68
  %78 = call noundef i64 @_ZNSt14numeric_limitsImE3maxEv() #11
  %79 = load ptr, ptr %9, align 8, !tbaa !47
  store i64 %78, ptr %79, align 8, !tbaa !24
  br label %88

80:                                               ; preds = %68
  %81 = load i64, ptr %6, align 8, !tbaa !24
  %82 = load ptr, ptr %20, align 8, !tbaa !87
  %83 = getelementptr inbounds nuw %"struct.base::Pickle::Header", ptr %82, i32 0, i32 0
  %84 = load i32, ptr %83, align 4, !tbaa !36
  %85 = zext i32 %84 to i64
  %86 = add i64 %81, %85
  %87 = load ptr, ptr %9, align 8, !tbaa !47
  store i64 %86, ptr %87, align 8, !tbaa !24
  br label %88

88:                                               ; preds = %80, %77
  store i1 true, ptr %5, align 1
  store i32 1, ptr %19, align 4
  br label %89

89:                                               ; preds = %88, %67
  call void @llvm.lifetime.end.p0(i64 8, ptr %20) #11
  br label %90

90:                                               ; preds = %89, %61
  call void @llvm.lifetime.end.p0(i64 8, ptr %18) #11
  %91 = load i1, ptr %5, align 1
  ret i1 %91

92:                                               ; preds = %49, %38, %27
  %93 = load ptr, ptr %12, align 8
  %94 = load i32, ptr %13, align 4
  %95 = insertvalue { ptr, i32 } poison, ptr %93, 0
  %96 = insertvalue { ptr, i32 } %95, i32 %94, 1
  resume { ptr, i32 } %96
}