; Function Attrs: mustprogress nofree norecurse nosync nounwind willreturn memory(argmem: readwrite) uwtable
define noundef zeroext i1 @_ZN4base6Pickle8PeekNextEmPKcS2_Pm(i64 noundef %0, ptr noundef %1, ptr noundef %2, ptr noundef writeonly captures(none) %3) local_unnamed_addr #3 align 2 personality ptr @__gxx_personality_v0 {
  %5 = ptrtoint ptr %2 to i64
  %6 = ptrtoint ptr %1 to i64
  %7 = sub i64 %5, %6
  %8 = icmp ugt i64 %7, 3
  %9 = icmp uge i64 %7, %0
  %or.cond = and i1 %8, %9
  br i1 %or.cond, label %10, label %13

10:                                               ; preds = %4
  %11 = load i32, ptr %1, align 4, !tbaa !15
  %12 = zext i32 %11 to i64
  %spec.select = tail call i64 @llvm.uadd.sat.i64(i64 %0, i64 %12)
  store i64 %spec.select, ptr %3, align 8, !tbaa !28
  br label %13

13:                                               ; preds = %10, %4
  ret i1 %or.cond
}